; Function Attrs: mustprogress nofree norecurse nosync nounwind memory(read, argmem: readwrite, inaccessiblemem: none) uwtable
define hidden noundef range(i32 0, 256) i32 @_ZN6google8protobuf8internal24UTF8GenericScanFastAsciiEPKNS1_19UTF8StateMachineObjEPKciPi(ptr noundef readonly captures(none) %0, ptr noundef %1, i32 noundef %2, ptr noundef writeonly captures(none) initializes((0, 4)) %3) local_unnamed_addr #3 {
  %5 = alloca i32, align 4
  store i32 0, ptr %3, align 4, !tbaa !3
  %6 = icmp eq i32 %2, 0
  br i1 %6, label %57, label %7

7:                                                ; preds = %4
  %8 = sext i32 %2 to i64
  %9 = getelementptr inbounds i8, ptr %1, i64 %8
  %10 = icmp slt i32 %2, 7
  %11 = getelementptr inbounds i8, ptr %9, i64 -7
  %12 = select i1 %10, ptr %1, ptr %11
  call void @llvm.lifetime.start.p0(i64 4, ptr nonnull %5) #7
  %13 = ptrtoint ptr %1 to i64
  br label %14

14:                                               ; preds = %.critedge4, %7
  %.041 = phi ptr [ %1, %7 ], [ %51, %.critedge4 ]
  %15 = ptrtoint ptr %.041 to i64
  %16 = and i64 %15, 7
  %.not50 = icmp ne i64 %16, 0
  %17 = icmp ult ptr %.041, %9
  %or.cond51 = select i1 %.not50, i1 %17, i1 false
  br i1 %or.cond51, label %.lr.ph, label %.critedge

.lr.ph:                                           ; preds = %14, %20
  %.152 = phi ptr [ %21, %20 ], [ %.041, %14 ]
  %18 = load i8, ptr %.152, align 1, !tbaa !17
  %19 = icmp sgt i8 %18, -1
  br i1 %19, label %20, label %.critedge2

20:                                               ; preds = %.lr.ph
  %21 = getelementptr inbounds nuw i8, ptr %.152, i64 1
  %22 = ptrtoint ptr %21 to i64
  %23 = and i64 %22, 7
  %.not = icmp ne i64 %23, 0
  %24 = icmp ult ptr %21, %9
  %or.cond = select i1 %.not, i1 %24, i1 false
  br i1 %or.cond, label %.lr.ph, label %.critedge, !llvm.loop !24

.critedge:                                        ; preds = %20, %14
  %.1.lcssa = phi ptr [ %.041, %14 ], [ %21, %20 ]
  %.lcssa = phi i64 [ %16, %14 ], [ %23, %20 ]
  %25 = icmp eq i64 %.lcssa, 0
  %26 = icmp ult ptr %.1.lcssa, %12
  %or.cond64 = select i1 %25, i1 %26, i1 false
  br i1 %or.cond64, label %.lr.ph55, label %.critedge2

.lr.ph55:                                         ; preds = %.critedge, %33
  %.354 = phi ptr [ %34, %33 ], [ %.1.lcssa, %.critedge ]
  %27 = load i32, ptr %.354, align 4, !tbaa !3
  %28 = getelementptr inbounds nuw i8, ptr %.354, i64 4
  %29 = load i32, ptr %28, align 4, !tbaa !3
  %30 = or i32 %29, %27
  %31 = and i32 %30, -2139062144
  %32 = icmp eq i32 %31, 0
  br i1 %32, label %33, label %.critedge2

33:                                               ; preds = %.lr.ph55
  %34 = getelementptr inbounds nuw i8, ptr %.354, i64 8
  %35 = icmp ult ptr %34, %12
  br i1 %35, label %.lr.ph55, label %.critedge2, !llvm.loop !25

.critedge2:                                       ; preds = %.lr.ph, %33, %.lr.ph55, %.critedge
  %.2 = phi ptr [ %.1.lcssa, %.critedge ], [ %34, %33 ], [ %.354, %.lr.ph55 ], [ %.152, %.lr.ph ]
  %36 = icmp ult ptr %.2, %9
  br i1 %36, label %.lr.ph60, label %.critedge4

.lr.ph60:                                         ; preds = %.critedge2, %39
  %.459 = phi ptr [ %40, %39 ], [ %.2, %.critedge2 ]
  %37 = load i8, ptr %.459, align 1, !tbaa !17
  %38 = icmp sgt i8 %37, -1
  br i1 %38, label %39, label %.critedge4

39:                                               ; preds = %.lr.ph60
  %40 = getelementptr inbounds nuw i8, ptr %.459, i64 1
  %41 = icmp ult ptr %40, %9
  br i1 %41, label %.lr.ph60, label %.critedge4, !llvm.loop !26

.critedge4:                                       ; preds = %.lr.ph60, %39, %.critedge2
  %.4.lcssa = phi ptr [ %.2, %.critedge2 ], [ %40, %39 ], [ %.459, %.lr.ph60 ]
  %42 = ptrtoint ptr %.4.lcssa to i64
  %43 = sub i64 %42, %13
  %44 = trunc i64 %43 to i32
  %sext = shl i64 %43, 32
  %45 = ashr exact i64 %sext, 32
  %46 = getelementptr inbounds i8, ptr %1, i64 %45
  %47 = sub nsw i32 %2, %44
  %48 = call noundef i32 @_ZN6google8protobuf8internal15UTF8GenericScanEPKNS1_19UTF8StateMachineObjEPKciPi(ptr noundef %0, ptr noundef %46, i32 noundef %47, ptr noundef nonnull %5)
  %49 = load i32, ptr %5, align 4, !tbaa !3
  %50 = sext i32 %49 to i64
  %51 = getelementptr inbounds i8, ptr %.4.lcssa, i64 %50
  %52 = icmp eq i32 %48, 253
  br i1 %52, label %14, label %53, !llvm.loop !27

53:                                               ; preds = %.critedge4
  %54 = ptrtoint ptr %51 to i64
  %55 = sub i64 %54, %13
  %56 = trunc i64 %55 to i32
  store i32 %56, ptr %3, align 4, !tbaa !3
  call void @llvm.lifetime.end.p0(i64 4, ptr nonnull %5) #7
  br label %57

57:                                               ; preds = %4, %53
  %.0 = phi i32 [ %48, %53 ], [ 241, %4 ]
  ret i32 %.0
}